target datalayout = "e-m:e-p270:32:32-p271:32:32-p272:64:64-i64:64-i128:128-f80:128-n8:16:32:64-S128"
target triple = "x86_64-unknown-linux-gnu"

%"class.cvc5::parser::ParserState" = type { ptr, ptr, ptr, ptr, ptr, i8, i8, i8, %"class.std::set", %"class.std::set.0", %"class.std::__cxx11::list" }
%"class.std::set" = type { %"class.std::_Rb_tree" }
%"class.std::_Rb_tree" = type { %"struct.std::_Rb_tree<cvc5::Kind, cvc5::Kind, std::_Identity<cvc5::Kind>, std::less<cvc5::Kind>>::_Rb_tree_impl" }
%"struct.std::_Rb_tree<cvc5::Kind, cvc5::Kind, std::_Identity<cvc5::Kind>, std::less<cvc5::Kind>>::_Rb_tree_impl" = type { %"struct.std::_Rb_tree_key_compare", %"struct.std::_Rb_tree_header" }
%"struct.std::_Rb_tree_key_compare" = type { %"struct.std::less" }
%"struct.std::less" = type { i8 }
%"struct.std::_Rb_tree_header" = type { %"struct.std::_Rb_tree_node_base", i64 }
%"struct.std::_Rb_tree_node_base" = type { i32, ptr, ptr, ptr }
%"class.std::set.0" = type { %"class.std::_Rb_tree.1" }
%"class.std::_Rb_tree.1" = type { %"struct.std::_Rb_tree<std::__cxx11::basic_string<char>, std::__cxx11::basic_string<char>, std::_Identity<std::__cxx11::basic_string<char>>, std::less<std::__cxx11::basic_string<char>>>::_Rb_tree_impl" }
%"struct.std::_Rb_tree<std::__cxx11::basic_string<char>, std::__cxx11::basic_string<char>, std::_Identity<std::__cxx11::basic_string<char>>, std::less<std::__cxx11::basic_string<char>>>::_Rb_tree_impl" = type { %"struct.std::_Rb_tree_key_compare.5", %"struct.std::_Rb_tree_header" }
%"struct.std::_Rb_tree_key_compare.5" = type { %"struct.std::less.6" }
%"struct.std::less.6" = type { i8 }
%"class.std::__cxx11::list" = type { %"class.std::__cxx11::_List_base" }
%"class.std::__cxx11::_List_base" = type { %"struct.std::__cxx11::_List_base<cvc5::parser::Command *, std::allocator<cvc5::parser::Command *>>::_List_impl" }
%"struct.std::__cxx11::_List_base<cvc5::parser::Command *, std::allocator<cvc5::parser::Command *>>::_List_impl" = type { %"struct.std::__detail::_List_node_header" }
%"struct.std::__detail::_List_node_header" = type { %"struct.std::__detail::_List_node_base", i64 }
%"struct.std::__detail::_List_node_base" = type { ptr, ptr }
%"class.cvc5::internal::FatalStream" = type { i8 }

@__PRETTY_FUNCTION__._ZN4cvc56parser11ParserState10isDeclaredERKNSt7__cxx1112basic_stringIcSt11char_traitsIcESaIcEEENS0_10SymbolTypeE = private unnamed_addr constant [76 x i8] c"bool cvc5::parser::ParserState::isDeclared(const std::string &, SymbolType)\00", align 1
@.str.38 = private unnamed_addr constant [115 x i8] c"generated/home/dtcxzyw/WorkSpace/Projects/compilers/llvm-opt-benchmark/bench/cvc5/cvc5/src/parser/parser_state.cpp\00", align 1
@.str.39 = private unnamed_addr constant [26 x i8] c"Unreachable code reached \00", align 1

; Function Attrs: mustprogress uwtable
define noundef zeroext i1 @_ZN4cvc56parser11ParserState10isDeclaredERKNSt7__cxx1112basic_stringIcSt11char_traitsIcESaIcEEENS0_10SymbolTypeE(ptr noundef nonnull align 8 dereferenceable(168) %this, ptr noundef nonnull align 8 dereferenceable(32) %name, i32 noundef %type) #4 align 2 personality ptr @__gxx_personality_v0 {
entry:
  %retval = alloca i1, align 1
  %this.addr = alloca ptr, align 8
  %name.addr = alloca ptr, align 8
  %type.addr = alloca i32, align 4
  %ref.tmp = alloca %"class.cvc5::internal::FatalStream", align 1
  %exn.slot = alloca ptr, align 8
  %ehselector.slot = alloca i32, align 4
  store ptr %this, ptr %this.addr, align 8
  store ptr %name, ptr %name.addr, align 8
  store i32 %type, ptr %type.addr, align 4
  %this1 = load ptr, ptr %this.addr, align 8
  %0 = load i32, ptr %type.addr, align 4
  switch i32 %0, label %sw.epilog [
    i32 0, label %sw.bb
    i32 1, label %sw.bb2
    i32 2, label %sw.bb5
  ]

sw.bb:                                            ; preds = %entry
  %d_symtab = getelementptr inbounds %"class.cvc5::parser::ParserState", ptr %this1, i32 0, i32 4
  %1 = load ptr, ptr %d_symtab, align 8
  %2 = load ptr, ptr %name.addr, align 8
  %call = call noundef zeroext i1 @_ZNK4cvc58internal6parser11SymbolTable7isBoundERKNSt7__cxx1112basic_stringIcSt11char_traitsIcESaIcEEE(ptr noundef nonnull align 8 dereferenceable(8) %1, ptr noundef nonnull align 8 dereferenceable(32) %2)
  store i1 %call, ptr %retval, align 1
  br label %return

sw.bb2:                                           ; preds = %entry
  %d_symtab3 = getelementptr inbounds %"class.cvc5::parser::ParserState", ptr %this1, i32 0, i32 4
  %3 = load ptr, ptr %d_symtab3, align 8
  %4 = load ptr, ptr %name.addr, align 8
  %call4 = call noundef zeroext i1 @_ZNK4cvc58internal6parser11SymbolTable11isBoundTypeERKNSt7__cxx1112basic_stringIcSt11char_traitsIcESaIcEEE(ptr noundef nonnull align 8 dereferenceable(8) %3, ptr noundef nonnull align 8 dereferenceable(32) %4)
  store i1 %call4, ptr %retval, align 1
  br label %return

sw.bb5:                                           ; preds = %entry
  call void @_ZN4cvc58internal11FatalStreamC1EPKcS3_i(ptr noundef nonnull align 1 dereferenceable(1) %ref.tmp, ptr noundef @__PRETTY_FUNCTION__._ZN4cvc56parser11ParserState10isDeclaredERKNSt7__cxx1112basic_stringIcSt11char_traitsIcESaIcEEENS0_10SymbolTypeE, ptr noundef @.str.38, i32 noundef 524)
  %call6 = invoke noundef nonnull align 8 dereferenceable(8) ptr @_ZN4cvc58internal11FatalStream6streamEv(ptr noundef nonnull align 1 dereferenceable(1) %ref.tmp)
          to label %invoke.cont unwind label %lpad

invoke.cont:                                      ; preds = %sw.bb5
  %call8 = invoke noundef nonnull align 8 dereferenceable(8) ptr @_ZStlsISt11char_traitsIcEERSt13basic_ostreamIcT_ES5_PKc(ptr noundef nonnull align 8 dereferenceable(8) %call6, ptr noundef @.str.39)
          to label %invoke.cont7 unwind label %lpad

invoke.cont7:                                     ; preds = %invoke.cont
  call void @_ZN4cvc58internal11FatalStreamD1Ev(ptr noundef nonnull align 1 dereferenceable(1) %ref.tmp) #20
  unreachable

lpad:                                             ; preds = %invoke.cont, %sw.bb5
  %5 = landingpad { ptr, i32 }
          cleanup
  %6 = extractvalue { ptr, i32 } %5, 0
  store ptr %6, ptr %exn.slot, align 8
  %7 = extractvalue { ptr, i32 } %5, 1
  store i32 %7, ptr %ehselector.slot, align 4
  call void @_ZN4cvc58internal11FatalStreamD1Ev(ptr noundef nonnull align 1 dereferenceable(1) %ref.tmp) #20
  unreachable

8:                                                ; No predecessors!
  br label %eh.resume

sw.epilog:                                        ; preds = %entry
  store i1 false, ptr %retval, align 1
  br label %return

return:                                           ; preds = %sw.epilog, %sw.bb2, %sw.bb
  %9 = load i1, ptr %retval, align 1
  ret i1 %9

eh.resume:                                        ; preds = %8
  %exn = load ptr, ptr %exn.slot, align 8
  %sel = load i32, ptr %ehselector.slot, align 4
  %lpad.val = insertvalue { ptr, i32 } poison, ptr %exn, 0
  %lpad.val9 = insertvalue { ptr, i32 } %lpad.val, i32 %sel, 1
  resume { ptr, i32 } %lpad.val9
}