; Function Attrs: mustprogress uwtable
define noundef zeroext i1 @_ZN4cvc56parser11ParserState10isDeclaredERKNSt7__cxx1112basic_stringIcSt11char_traitsIcESaIcEEENS0_10SymbolTypeE(ptr nocapture noundef nonnull readonly align 8 dereferenceable(168) %this, ptr noundef nonnull align 8 dereferenceable(32) %name, i32 noundef %type) local_unnamed_addr #3 align 2 personality ptr @__gxx_personality_v0 {
entry:
  %ref.tmp = alloca %"class.cvc5::internal::FatalStream", align 1
  switch i32 %type, label %return [
    i32 0, label %sw.bb
    i32 1, label %sw.bb2
    i32 2, label %sw.bb5
  ]

sw.bb:                                            ; preds = %entry
  %d_symtab = getelementptr inbounds i8, ptr %this, i64 32
  %0 = load ptr, ptr %d_symtab, align 8
  %call = tail call noundef zeroext i1 @_ZNK4cvc58internal6parser11SymbolTable7isBoundERKNSt7__cxx1112basic_stringIcSt11char_traitsIcESaIcEEE(ptr noundef nonnull align 8 dereferenceable(8) %0, ptr noundef nonnull align 8 dereferenceable(32) %name)
  br label %return

sw.bb2:                                           ; preds = %entry
  %d_symtab3 = getelementptr inbounds i8, ptr %this, i64 32
  %1 = load ptr, ptr %d_symtab3, align 8
  %call4 = tail call noundef zeroext i1 @_ZNK4cvc58internal6parser11SymbolTable11isBoundTypeERKNSt7__cxx1112basic_stringIcSt11char_traitsIcESaIcEEE(ptr noundef nonnull align 8 dereferenceable(8) %1, ptr noundef nonnull align 8 dereferenceable(32) %name)
  br label %return

sw.bb5:                                           ; preds = %entry
  call void @_ZN4cvc58internal11FatalStreamC1EPKcS3_i(ptr noundef nonnull align 1 dereferenceable(1) %ref.tmp, ptr noundef nonnull @__PRETTY_FUNCTION__._ZN4cvc56parser11ParserState10isDeclaredERKNSt7__cxx1112basic_stringIcSt11char_traitsIcESaIcEEENS0_10SymbolTypeE, ptr noundef nonnull @.str.38, i32 noundef 524)
  %call6 = invoke noundef nonnull align 8 dereferenceable(8) ptr @_ZN4cvc58internal11FatalStream6streamEv(ptr noundef nonnull align 1 dereferenceable(1) %ref.tmp)
          to label %invoke.cont unwind label %lpad

invoke.cont:                                      ; preds = %sw.bb5
  %call8 = invoke noundef nonnull align 8 dereferenceable(8) ptr @_ZStlsISt11char_traitsIcEERSt13basic_ostreamIcT_ES5_PKc(ptr noundef nonnull align 8 dereferenceable(8) %call6, ptr noundef nonnull @.str.39)
          to label %invoke.cont7 unwind label %lpad

invoke.cont7:                                     ; preds = %invoke.cont
  call void @_ZN4cvc58internal11FatalStreamD1Ev(ptr noundef nonnull align 1 dereferenceable(1) %ref.tmp) #25
  unreachable

lpad:                                             ; preds = %invoke.cont, %sw.bb5
  %2 = landingpad { ptr, i32 }
          cleanup
  call void @_ZN4cvc58internal11FatalStreamD1Ev(ptr noundef nonnull align 1 dereferenceable(1) %ref.tmp) #25
  unreachable

return:                                           ; preds = %entry, %sw.bb2, %sw.bb
  %retval.0 = phi i1 [ %call4, %sw.bb2 ], [ %call, %sw.bb ], [ false, %entry ]
  ret i1 %retval.0
}